target datalayout = "e-m:e-p270:32:32-p271:32:32-p272:64:64-i64:64-i128:128-f80:128-n8:16:32:64-S128"
target triple = "x86_64-pc-linux-gnu"

%"class.std::vector" = type { %"struct.std::_Vector_base" }
%"struct.std::_Vector_base" = type { %"struct.std::_Vector_base<int, std::allocator<int>>::_Vector_impl" }
%"struct.std::_Vector_base<int, std::allocator<int>>::_Vector_impl" = type { %"struct.std::_Vector_base<int, std::allocator<int>>::_Vector_impl_data" }
%"struct.std::_Vector_base<int, std::allocator<int>>::_Vector_impl_data" = type { ptr, ptr, ptr }
%class.CVQualifiers = type { ptr, i8, i8, %"class.std::vector.51", %"class.std::vector.51" }
%"class.std::vector.51" = type { %"struct.std::_Bvector_base" }
%"struct.std::_Bvector_base" = type { %"struct.std::_Bvector_base<std::allocator<bool>>::_Bvector_impl" }
%"struct.std::_Bvector_base<std::allocator<bool>>::_Bvector_impl" = type { %"struct.std::_Bvector_base<std::allocator<bool>>::_Bvector_impl_data" }
%"struct.std::_Bvector_base<std::allocator<bool>>::_Bvector_impl_data" = type { %"struct.std::_Bit_iterator", %"struct.std::_Bit_iterator", ptr }
%"struct.std::_Bit_iterator" = type { %"struct.std::_Bit_iterator_base.base", [4 x i8] }
%"struct.std::_Bit_iterator_base.base" = type <{ ptr, i32 }>
%class.Type = type { i32, ptr, i32, %"class.std::vector.55", %"class.std::vector.60", i32, i8, i8, i8, i8, i8, %"class.std::vector.65", %"class.std::vector" }
%"class.std::vector.55" = type { %"struct.std::_Vector_base.56" }
%"struct.std::_Vector_base.56" = type { %"struct.std::_Vector_base<unsigned int, std::allocator<unsigned int>>::_Vector_impl" }
%"struct.std::_Vector_base<unsigned int, std::allocator<unsigned int>>::_Vector_impl" = type { %"struct.std::_Vector_base<unsigned int, std::allocator<unsigned int>>::_Vector_impl_data" }
%"struct.std::_Vector_base<unsigned int, std::allocator<unsigned int>>::_Vector_impl_data" = type { ptr, ptr, ptr }
%"class.std::vector.60" = type { %"struct.std::_Vector_base.61" }
%"struct.std::_Vector_base.61" = type { %"struct.std::_Vector_base<const Type *, std::allocator<const Type *>>::_Vector_impl" }
%"struct.std::_Vector_base<const Type *, std::allocator<const Type *>>::_Vector_impl" = type { %"struct.std::_Vector_base<const Type *, std::allocator<const Type *>>::_Vector_impl_data" }
%"struct.std::_Vector_base<const Type *, std::allocator<const Type *>>::_Vector_impl_data" = type { ptr, ptr, ptr }
%"class.std::vector.65" = type { %"struct.std::_Vector_base.66" }
%"struct.std::_Vector_base.66" = type { %"struct.std::_Vector_base<CVQualifiers, std::allocator<CVQualifiers>>::_Vector_impl" }
%"struct.std::_Vector_base<CVQualifiers, std::allocator<CVQualifiers>>::_Vector_impl" = type { %"struct.std::_Vector_base<CVQualifiers, std::allocator<CVQualifiers>>::_Vector_impl_data" }
%"struct.std::_Vector_base<CVQualifiers, std::allocator<CVQualifiers>>::_Vector_impl_data" = type { ptr, ptr, ptr }

@_ZN10Bookkeeper22structs_with_bitfieldsE = dso_local global i32 0, align 4
@_ZN10Bookkeeper18bitfields_in_totalE = dso_local global i32 0, align 4
@_ZN10Bookkeeper25unamed_bitfields_in_totalE = dso_local global i32 0, align 4
@_ZN10Bookkeeper24const_bitfields_in_totalE = dso_local global i32 0, align 4
@_ZN10Bookkeeper27volatile_bitfields_in_totalE = dso_local global i32 0, align 4

; Function Attrs: mustprogress uwtable
define linkonce_odr dso_local noundef zeroext i1 @_ZNK12CVQualifiers11is_volatileEv(ptr noundef nonnull align 8 dereferenceable(96) %0) #5 comdat align 2 {
  %2 = alloca ptr, align 8
  store ptr %0, ptr %2, align 8, !tbaa !173
  %3 = load ptr, ptr %2, align 8
  %4 = call noundef zeroext i1 @_ZNK12CVQualifiers23is_volatile_after_derefEi(ptr noundef nonnull align 8 dereferenceable(96) %3, i32 noundef 0)
  ret i1 %4
}

; Function Attrs: mustprogress uwtable
define linkonce_odr dso_local noundef zeroext i1 @_ZNK12CVQualifiers8is_constEv(ptr noundef nonnull align 8 dereferenceable(96) %0) #5 comdat align 2 {
  %2 = alloca ptr, align 8
  store ptr %0, ptr %2, align 8, !tbaa !173
  %3 = load ptr, ptr %2, align 8
  %4 = call noundef zeroext i1 @_ZNK12CVQualifiers20is_const_after_derefEi(ptr noundef nonnull align 8 dereferenceable(96) %3, i32 noundef 0)
  ret i1 %4
}

; Function Attrs: mustprogress nounwind uwtable
define linkonce_odr dso_local noundef nonnull align 8 dereferenceable(96) ptr @_ZNKSt6vectorI12CVQualifiersSaIS0_EEixEm(ptr noundef nonnull align 8 dereferenceable(24) %0, i64 noundef %1) #4 comdat align 2 {
  %3 = alloca ptr, align 8
  %4 = alloca i64, align 8
  store ptr %0, ptr %3, align 8, !tbaa !170
  store i64 %1, ptr %4, align 8, !tbaa !26
  %5 = load ptr, ptr %3, align 8
  %6 = getelementptr inbounds nuw %"struct.std::_Vector_base.66", ptr %5, i32 0, i32 0
  %7 = getelementptr inbounds nuw %"struct.std::_Vector_base<CVQualifiers, std::allocator<CVQualifiers>>::_Vector_impl_data", ptr %6, i32 0, i32 0
  %8 = load ptr, ptr %7, align 8, !tbaa !172
  %9 = load i64, ptr %4, align 8, !tbaa !26
  %10 = getelementptr inbounds nuw %class.CVQualifiers, ptr %8, i64 %9
  ret ptr %10
}

; Function Attrs: mustprogress nounwind uwtable
define linkonce_odr dso_local noundef nonnull align 4 dereferenceable(4) ptr @_ZNKSt6vectorIiSaIiEEixEm(ptr noundef nonnull align 8 dereferenceable(24) %0, i64 noundef %1) #4 comdat align 2 {
  %3 = alloca ptr, align 8
  %4 = alloca i64, align 8
  store ptr %0, ptr %3, align 8, !tbaa !4
  store i64 %1, ptr %4, align 8, !tbaa !26
  %5 = load ptr, ptr %3, align 8
  %6 = getelementptr inbounds nuw %"struct.std::_Vector_base", ptr %5, i32 0, i32 0
  %7 = getelementptr inbounds nuw %"struct.std::_Vector_base<int, std::allocator<int>>::_Vector_impl_data", ptr %6, i32 0, i32 0
  %8 = load ptr, ptr %7, align 8, !tbaa !9
  %9 = load i64, ptr %4, align 8, !tbaa !26
  %10 = getelementptr inbounds nuw i32, ptr %8, i64 %9
  ret ptr %10
}

; Function Attrs: mustprogress nounwind uwtable
define linkonce_odr dso_local noundef i64 @_ZNKSt6vectorIiSaIiEE4sizeEv(ptr noundef nonnull align 8 dereferenceable(24) %0) #4 comdat align 2 {
  %2 = alloca ptr, align 8
  store ptr %0, ptr %2, align 8, !tbaa !4
  %3 = load ptr, ptr %2, align 8
  %4 = getelementptr inbounds nuw %"struct.std::_Vector_base", ptr %3, i32 0, i32 0
  %5 = getelementptr inbounds nuw %"struct.std::_Vector_base<int, std::allocator<int>>::_Vector_impl_data", ptr %4, i32 0, i32 1
  %6 = load ptr, ptr %5, align 8, !tbaa !12
  %7 = getelementptr inbounds nuw %"struct.std::_Vector_base", ptr %3, i32 0, i32 0
  %8 = getelementptr inbounds nuw %"struct.std::_Vector_base<int, std::allocator<int>>::_Vector_impl_data", ptr %7, i32 0, i32 0
  %9 = load ptr, ptr %8, align 8, !tbaa !9
  %10 = ptrtoint ptr %6 to i64
  %11 = ptrtoint ptr %9 to i64
  %12 = sub i64 %10, %11
  %13 = sdiv exact i64 %12, 4
  ret i64 %13
}

; Function Attrs: mustprogress nounwind uwtable
define linkonce_odr dso_local noundef zeroext i1 @_ZNK4Type12is_aggregateEv(ptr noundef nonnull align 8 dereferenceable(136) %0) #4 comdat align 2 {
  %2 = alloca ptr, align 8
  store ptr %0, ptr %2, align 8, !tbaa !104
  %3 = load ptr, ptr %2, align 8
  %4 = getelementptr inbounds nuw %class.Type, ptr %3, i32 0, i32 0
  %5 = load i32, ptr %4, align 8, !tbaa !126
  %6 = icmp eq i32 %5, 3
  br i1 %6, label %11, label %7

7:                                                ; preds = %1
  %8 = getelementptr inbounds nuw %class.Type, ptr %3, i32 0, i32 0
  %9 = load i32, ptr %8, align 8, !tbaa !126
  %10 = icmp eq i32 %9, 2
  br label %11

11:                                               ; preds = %7, %1
  %12 = phi i1 [ true, %1 ], [ %10, %7 ]
  ret i1 %12
}

; Function Attrs: mustprogress uwtable
define dso_local void @_ZN10Bookkeeper26record_type_with_bitfieldsEPK4Type(ptr noundef %0) #5 align 2 personality ptr @__gxx_personality_v0 {
  %2 = alloca ptr, align 8
  %3 = alloca i64, align 8
  %4 = alloca i64, align 8
  %5 = alloca %class.CVQualifiers, align 8
  %6 = alloca ptr, align 8
  %7 = alloca i32, align 4
  store ptr %0, ptr %2, align 8, !tbaa !104
  %8 = load ptr, ptr %2, align 8, !tbaa !104
  %9 = call noundef zeroext i1 @_ZNK4Type12is_aggregateEv(ptr noundef nonnull align 8 dereferenceable(136) %8)
  br i1 %9, label %11, label %10

10:                                               ; preds = %1
  br label %67

11:                                               ; preds = %1
  %12 = load ptr, ptr %2, align 8, !tbaa !104
  %13 = call noundef zeroext i1 @_ZNK4Type13has_bitfieldsEv(ptr noundef nonnull align 8 dereferenceable(136) %12)
  br i1 %13, label %14, label %67

14:                                               ; preds = %11
  %15 = load i32, ptr @_ZN10Bookkeeper22structs_with_bitfieldsE, align 4, !tbaa !15
  %16 = add nsw i32 %15, 1
  store i32 %16, ptr @_ZN10Bookkeeper22structs_with_bitfieldsE, align 4, !tbaa !15
  call void @llvm.lifetime.start.p0(i64 8, ptr %3) #3
  %17 = load ptr, ptr %2, align 8, !tbaa !104
  %18 = getelementptr inbounds nuw %class.Type, ptr %17, i32 0, i32 12
  %19 = call noundef i64 @_ZNKSt6vectorIiSaIiEE4sizeEv(ptr noundef nonnull align 8 dereferenceable(24) %18) #3
  store i64 %19, ptr %3, align 8, !tbaa !26
  call void @llvm.lifetime.start.p0(i64 8, ptr %4) #3
  store i64 0, ptr %4, align 8, !tbaa !26
  br label %20

20:                                               ; preds = %63, %14
  %21 = load i64, ptr %4, align 8, !tbaa !26
  %22 = load i64, ptr %3, align 8, !tbaa !26
  %23 = icmp ult i64 %21, %22
  br i1 %23, label %25, label %24

24:                                               ; preds = %20
  call void @llvm.lifetime.end.p0(i64 8, ptr %4) #3
  br label %66

25:                                               ; preds = %20
  %26 = load ptr, ptr %2, align 8, !tbaa !104
  %27 = load i64, ptr %4, align 8, !tbaa !26
  %28 = call noundef zeroext i1 @_ZNK4Type11is_bitfieldEm(ptr noundef nonnull align 8 dereferenceable(136) %26, i64 noundef %27)
  br i1 %28, label %30, label %29

29:                                               ; preds = %25
  br label %63

30:                                               ; preds = %25
  %31 = load i32, ptr @_ZN10Bookkeeper18bitfields_in_totalE, align 4, !tbaa !15
  %32 = add nsw i32 %31, 1
  store i32 %32, ptr @_ZN10Bookkeeper18bitfields_in_totalE, align 4, !tbaa !15
  %33 = load ptr, ptr %2, align 8, !tbaa !104
  %34 = getelementptr inbounds nuw %class.Type, ptr %33, i32 0, i32 12
  %35 = load i64, ptr %4, align 8, !tbaa !26
  %36 = call noundef nonnull align 4 dereferenceable(4) ptr @_ZNKSt6vectorIiSaIiEEixEm(ptr noundef nonnull align 8 dereferenceable(24) %34, i64 noundef %35) #3
  %37 = load i32, ptr %36, align 4, !tbaa !15
  %38 = icmp eq i32 %37, 0
  br i1 %38, label %39, label %42

39:                                               ; preds = %30
  %40 = load i32, ptr @_ZN10Bookkeeper25unamed_bitfields_in_totalE, align 4, !tbaa !15
  %41 = add nsw i32 %40, 1
  store i32 %41, ptr @_ZN10Bookkeeper25unamed_bitfields_in_totalE, align 4, !tbaa !15
  br label %42

42:                                               ; preds = %39, %30
  call void @llvm.lifetime.start.p0(i64 96, ptr %5) #3
  %43 = load ptr, ptr %2, align 8, !tbaa !104
  %44 = getelementptr inbounds nuw %class.Type, ptr %43, i32 0, i32 11
  %45 = load i64, ptr %4, align 8, !tbaa !26
  %46 = call noundef nonnull align 8 dereferenceable(96) ptr @_ZNKSt6vectorI12CVQualifiersSaIS0_EEixEm(ptr noundef nonnull align 8 dereferenceable(24) %44, i64 noundef %45) #3
  call void @_ZN12CVQualifiersC1ERKS_(ptr noundef nonnull align 8 dereferenceable(96) %5, ptr noundef nonnull align 8 dereferenceable(96) %46)
  %47 = invoke noundef zeroext i1 @_ZNK12CVQualifiers8is_constEv(ptr noundef nonnull align 8 dereferenceable(96) %5)
          to label %48 unwind label %52

48:                                               ; preds = %42
  br i1 %47, label %49, label %56

49:                                               ; preds = %48
  %50 = load i32, ptr @_ZN10Bookkeeper24const_bitfields_in_totalE, align 4, !tbaa !15
  %51 = add nsw i32 %50, 1
  store i32 %51, ptr @_ZN10Bookkeeper24const_bitfields_in_totalE, align 4, !tbaa !15
  br label %56

52:                                               ; preds = %56, %42
  %53 = landingpad { ptr, i32 }
          cleanup
  %54 = extractvalue { ptr, i32 } %53, 0
  store ptr %54, ptr %6, align 8
  %55 = extractvalue { ptr, i32 } %53, 1
  store i32 %55, ptr %7, align 4
  call void @_ZN12CVQualifiersD1Ev(ptr noundef nonnull align 8 dereferenceable(96) %5) #3
  call void @llvm.lifetime.end.p0(i64 96, ptr %5) #3
  call void @llvm.lifetime.end.p0(i64 8, ptr %4) #3
  call void @llvm.lifetime.end.p0(i64 8, ptr %3) #3
  br label %68

56:                                               ; preds = %49, %48
  %57 = invoke noundef zeroext i1 @_ZNK12CVQualifiers11is_volatileEv(ptr noundef nonnull align 8 dereferenceable(96) %5)
          to label %58 unwind label %52

58:                                               ; preds = %56
  br i1 %57, label %59, label %62

59:                                               ; preds = %58
  %60 = load i32, ptr @_ZN10Bookkeeper27volatile_bitfields_in_totalE, align 4, !tbaa !15
  %61 = add nsw i32 %60, 1
  store i32 %61, ptr @_ZN10Bookkeeper27volatile_bitfields_in_totalE, align 4, !tbaa !15
  br label %62

62:                                               ; preds = %59, %58
  call void @_ZN12CVQualifiersD1Ev(ptr noundef nonnull align 8 dereferenceable(96) %5) #3
  call void @llvm.lifetime.end.p0(i64 96, ptr %5) #3
  br label %63

63:                                               ; preds = %62, %29
  %64 = load i64, ptr %4, align 8, !tbaa !26
  %65 = add i64 %64, 1
  store i64 %65, ptr %4, align 8, !tbaa !26
  br label %20, !llvm.loop !169

66:                                               ; preds = %24
  call void @llvm.lifetime.end.p0(i64 8, ptr %3) #3
  br label %67

67:                                               ; preds = %10, %66, %11
  ret void

68:                                               ; preds = %52
  %69 = load ptr, ptr %6, align 8
  %70 = load i32, ptr %7, align 4
  %71 = insertvalue { ptr, i32 } poison, ptr %69, 0
  %72 = insertvalue { ptr, i32 } %71, i32 %70, 1
  resume { ptr, i32 } %72
}