; Function Attrs: mustprogress uwtable
define dso_local void @_ZN10Bookkeeper26record_type_with_bitfieldsEPK4Type(ptr noundef %0) local_unnamed_addr #6 align 2 personality ptr @__gxx_personality_v0 {
  %2 = alloca %class.CVQualifiers, align 8
  %3 = load i32, ptr %0, align 8, !tbaa !135
  %4 = and i32 %3, -2
  %spec.select.i = icmp eq i32 %4, 2
  br i1 %spec.select.i, label %5, label %.loopexit

5:                                                ; preds = %1
  %6 = tail call noundef zeroext i1 @_ZNK4Type13has_bitfieldsEv(ptr noundef nonnull align 8 dereferenceable(136) %0)
  br i1 %6, label %7, label %.loopexit

7:                                                ; preds = %5
  %8 = load i32, ptr @_ZN10Bookkeeper22structs_with_bitfieldsE, align 4, !tbaa !12
  %9 = add nsw i32 %8, 1
  store i32 %9, ptr @_ZN10Bookkeeper22structs_with_bitfieldsE, align 4, !tbaa !12
  %10 = getelementptr inbounds nuw i8, ptr %0, i64 112
  %11 = getelementptr inbounds nuw i8, ptr %0, i64 120
  %12 = load ptr, ptr %11, align 8, !tbaa !11
  %13 = load ptr, ptr %10, align 8, !tbaa !4
  %.not = icmp eq ptr %12, %13
  br i1 %.not, label %.loopexit, label %.lr.ph

.lr.ph:                                           ; preds = %7
  %14 = ptrtoint ptr %12 to i64
  %15 = ptrtoint ptr %13 to i64
  %16 = sub i64 %14, %15
  %17 = ashr exact i64 %16, 2
  %18 = getelementptr inbounds nuw i8, ptr %0, i64 88
  %umax = tail call i64 @llvm.umax.i64(i64 %17, i64 1)
  br label %19

19:                                               ; preds = %.lr.ph, %46
  %.013 = phi i64 [ 0, %.lr.ph ], [ %47, %46 ]
  %20 = call noundef zeroext i1 @_ZNK4Type11is_bitfieldEm(ptr noundef nonnull align 8 dereferenceable(136) %0, i64 noundef %.013)
  br i1 %20, label %21, label %46

21:                                               ; preds = %19
  %22 = load i32, ptr @_ZN10Bookkeeper18bitfields_in_totalE, align 4, !tbaa !12
  %23 = add nsw i32 %22, 1
  store i32 %23, ptr @_ZN10Bookkeeper18bitfields_in_totalE, align 4, !tbaa !12
  %24 = load ptr, ptr %10, align 8, !tbaa !4
  %25 = getelementptr inbounds nuw i32, ptr %24, i64 %.013
  %26 = load i32, ptr %25, align 4, !tbaa !12
  %27 = icmp eq i32 %26, 0
  br i1 %27, label %28, label %31

28:                                               ; preds = %21
  %29 = load i32, ptr @_ZN10Bookkeeper25unamed_bitfields_in_totalE, align 4, !tbaa !12
  %30 = add nsw i32 %29, 1
  store i32 %30, ptr @_ZN10Bookkeeper25unamed_bitfields_in_totalE, align 4, !tbaa !12
  br label %31

31:                                               ; preds = %28, %21
  call void @llvm.lifetime.start.p0(i64 96, ptr nonnull %2) #19
  %32 = load ptr, ptr %18, align 8, !tbaa !158
  %33 = getelementptr inbounds nuw %class.CVQualifiers, ptr %32, i64 %.013
  call void @_ZN12CVQualifiersC1ERKS_(ptr noundef nonnull align 8 dereferenceable(96) %2, ptr noundef nonnull align 8 dereferenceable(96) %33)
  %34 = invoke noundef zeroext i1 @_ZNK12CVQualifiers20is_const_after_derefEi(ptr noundef nonnull align 8 dereferenceable(96) %2, i32 noundef 0)
          to label %_ZNK12CVQualifiers8is_constEv.exit unwind label %38

_ZNK12CVQualifiers8is_constEv.exit:               ; preds = %31
  br i1 %34, label %35, label %40

35:                                               ; preds = %_ZNK12CVQualifiers8is_constEv.exit
  %36 = load i32, ptr @_ZN10Bookkeeper24const_bitfields_in_totalE, align 4, !tbaa !12
  %37 = add nsw i32 %36, 1
  store i32 %37, ptr @_ZN10Bookkeeper24const_bitfields_in_totalE, align 4, !tbaa !12
  br label %40

38:                                               ; preds = %40, %31
  %39 = landingpad { ptr, i32 }
          cleanup
  call void @_ZN12CVQualifiersD1Ev(ptr noundef nonnull align 8 dereferenceable(96) %2) #19
  call void @llvm.lifetime.end.p0(i64 96, ptr nonnull %2) #19
  resume { ptr, i32 } %39

40:                                               ; preds = %35, %_ZNK12CVQualifiers8is_constEv.exit
  %41 = invoke noundef zeroext i1 @_ZNK12CVQualifiers23is_volatile_after_derefEi(ptr noundef nonnull align 8 dereferenceable(96) %2, i32 noundef 0)
          to label %_ZNK12CVQualifiers11is_volatileEv.exit unwind label %38

_ZNK12CVQualifiers11is_volatileEv.exit:           ; preds = %40
  br i1 %41, label %42, label %45

42:                                               ; preds = %_ZNK12CVQualifiers11is_volatileEv.exit
  %43 = load i32, ptr @_ZN10Bookkeeper27volatile_bitfields_in_totalE, align 4, !tbaa !12
  %44 = add nsw i32 %43, 1
  store i32 %44, ptr @_ZN10Bookkeeper27volatile_bitfields_in_totalE, align 4, !tbaa !12
  br label %45

45:                                               ; preds = %42, %_ZNK12CVQualifiers11is_volatileEv.exit
  call void @_ZN12CVQualifiersD1Ev(ptr noundef nonnull align 8 dereferenceable(96) %2) #19
  call void @llvm.lifetime.end.p0(i64 96, ptr nonnull %2) #19
  br label %46

46:                                               ; preds = %19, %45
  %47 = add nuw i64 %.013, 1
  %exitcond.not = icmp eq i64 %47, %umax
  br i1 %exitcond.not, label %.loopexit, label %19, !llvm.loop !159

.loopexit:                                        ; preds = %46, %7, %1, %5
  ret void
}